; Function Attrs: mustprogress uwtable
define noundef nonnull align 8 dereferenceable(44) ptr @_ZN32pxrInternal_v0_24__pxrReserved__14UsdGeomPrimvaraSERKS0_(ptr noundef nonnull returned align 8 dereferenceable(44) %0, ptr noundef nonnull align 8 dereferenceable(44) %1) local_unnamed_addr #1 align 2 {
  %.not = icmp eq ptr %0, %1
  br i1 %.not, label %6, label %3

3:                                                ; preds = %2
  %4 = getelementptr inbounds nuw i8, ptr %0, i64 40
  store atomic i32 0, ptr %4 seq_cst, align 8
  %5 = tail call noundef nonnull align 8 dereferenceable(32) ptr @_ZN32pxrInternal_v0_24__pxrReserved__9UsdObjectaSERKS0_(ptr noundef nonnull align 8 dereferenceable(32) %0, ptr noundef nonnull align 8 dereferenceable(32) %1)
  br label %6

6:                                                ; preds = %3, %2
  ret ptr %0
}